; Function Attrs: nounwind uwtable
define internal i32 @dissect_PRINTER_DATATYPE(ptr noundef %0, i32 noundef %1, ptr noundef %2, ptr noundef %3, ptr noundef %4, ptr noundef %5) #0 {
  %7 = getelementptr inbounds nuw i8, ptr %4, i64 28
  %8 = load i32, ptr %7, align 4
  %.not = icmp eq i32 %8, 0
  br i1 %.not, label %9, label %12

9:                                                ; preds = %6
  %10 = load i32, ptr @hf_datatype, align 4
  %11 = tail call i32 @dissect_ndr_cvstring(ptr noundef %0, i32 noundef %1, ptr noundef %2, ptr noundef %3, ptr noundef nonnull %4, ptr noundef %5, i32 noundef 2, i32 noundef %10, i32 noundef 1, ptr noundef null) #5
  br label %12

12:                                               ; preds = %6, %9
  %.0 = phi i32 [ %11, %9 ], [ %1, %6 ]
  ret i32 %.0
}